; Function Attrs: mustprogress uwtable
define void @_ZN8facebook5velox6common3hll9SparseHll9mergeWithEPKc(ptr noundef nonnull align 8 dereferenceable(36) %this, ptr noundef readonly captures(none) %serialized) local_unnamed_addr #0 align 2 {
entry:
  %0 = load i8, ptr %serialized, align 1
  %cmp.not.i = icmp eq i8 %0, 2
  br i1 %cmp.not.i, label %_ZN8facebook5velox6common3hll12_GLOBAL__N_121initializeInputStreamEPKc.exit, label %if.then.i

if.then.i:                                        ; preds = %entry
  tail call void @llvm.trap()
  unreachable

_ZN8facebook5velox6common3hll12_GLOBAL__N_121initializeInputStreamEPKc.exit: ; preds = %entry
  %add.ptr.i = getelementptr inbounds nuw i8, ptr %serialized, i64 2
  %1 = load i16, ptr %add.ptr.i, align 2
  %tobool.not = icmp eq i16 %1, 0
  br i1 %tobool.not, label %if.end, label %if.then

if.then:                                          ; preds = %_ZN8facebook5velox6common3hll12_GLOBAL__N_121initializeInputStreamEPKc.exit
  %conv = sext i16 %1 to i64
  %add.ptr = getelementptr inbounds nuw i8, ptr %serialized, i64 4
  tail call void @_ZN8facebook5velox6common3hll9SparseHll9mergeWithEmPKj(ptr noundef nonnull align 8 dereferenceable(36) %this, i64 noundef %conv, ptr noundef nonnull %add.ptr)
  br label %if.end

if.end:                                           ; preds = %if.then, %_ZN8facebook5velox6common3hll12_GLOBAL__N_121initializeInputStreamEPKc.exit
  ret void
}